target datalayout = "e-m:e-p270:32:32-p271:32:32-p272:64:64-i64:64-i128:128-f80:128-n8:16:32:64-S128"
target triple = "x86_64-pc-linux-gnu"

%struct._rdp_conv_info_t = type { i32, i32, i32, i32, i32, %struct._rdp_server_address, i8, i8, [32 x %struct._rdp_channel_def] }
%struct._rdp_server_address = type { %struct._address, i16 }
%struct._address = type { i32, i32, ptr, ptr }
%struct._rdp_channel_def = type { i32, ptr, i32 }
%struct._packet_info = type { ptr, ptr, i32, i32, %struct.nstime_t, %struct.nstime_t, %struct.nstime_t, i8, ptr, ptr, ptr, ptr, %struct._address, %struct._address, %struct._address, %struct._address, %struct._address, %struct._address, i32, ptr, i8, [3 x i8], %struct.anon, i32, i32, i32, i32, ptr, i8, ptr, ptr, i16, i16, i32, i32, i16, i32, i32, ptr, ptr, ptr, i8, i8, i16, i16, i16, i32, i16, i16, ptr, ptr, ptr, ptr, ptr, i32, i32 }
%struct.nstime_t = type { i64, i32 }
%struct.anon = type { i8, [3 x i8] }
%struct._rdpudp_conv_info_t = type { i32, i8, %struct._address, i16, ptr, %struct.rdpudp_seq_context_t, %struct.rdpudp_seq_context_t, ptr, %struct.rdpudp_seq_context_t, %struct.rdpudp_seq_context_t }
%struct.rdpudp_seq_context_t = type { i64, i16 }

@proto_rdp = external global i32, align 4
@proto_rdpudp = hidden global i32 0, align 4

; Function Attrs: inlinehint nounwind null_pointer_is_valid sspstrong uwtable
define internal zeroext i1 @addresses_equal(ptr noundef %0, ptr noundef %1) #3 {
  %3 = alloca i1, align 1
  %4 = alloca ptr, align 8
  %5 = alloca ptr, align 8
  store ptr %0, ptr %4, align 8
  store ptr %1, ptr %5, align 8
  %6 = load ptr, ptr %4, align 8
  %7 = getelementptr inbounds nuw %struct._address, ptr %6, i32 0, i32 0
  %8 = load i32, ptr %7, align 8
  %9 = load ptr, ptr %5, align 8
  %10 = getelementptr inbounds nuw %struct._address, ptr %9, i32 0, i32 0
  %11 = load i32, ptr %10, align 8
  %12 = icmp eq i32 %8, %11
  br i1 %12, label %13, label %40

13:                                               ; preds = %2
  %14 = load ptr, ptr %4, align 8
  %15 = getelementptr inbounds nuw %struct._address, ptr %14, i32 0, i32 1
  %16 = load i32, ptr %15, align 4
  %17 = load ptr, ptr %5, align 8
  %18 = getelementptr inbounds nuw %struct._address, ptr %17, i32 0, i32 1
  %19 = load i32, ptr %18, align 4
  %20 = icmp eq i32 %16, %19
  br i1 %20, label %21, label %40

21:                                               ; preds = %13
  %22 = load ptr, ptr %4, align 8
  %23 = getelementptr inbounds nuw %struct._address, ptr %22, i32 0, i32 1
  %24 = load i32, ptr %23, align 4
  %25 = icmp eq i32 %24, 0
  br i1 %25, label %39, label %26

26:                                               ; preds = %21
  %27 = load ptr, ptr %4, align 8
  %28 = getelementptr inbounds nuw %struct._address, ptr %27, i32 0, i32 2
  %29 = load ptr, ptr %28, align 8
  %30 = load ptr, ptr %5, align 8
  %31 = getelementptr inbounds nuw %struct._address, ptr %30, i32 0, i32 2
  %32 = load ptr, ptr %31, align 8
  %33 = load ptr, ptr %4, align 8
  %34 = getelementptr inbounds nuw %struct._address, ptr %33, i32 0, i32 1
  %35 = load i32, ptr %34, align 4
  %36 = sext i32 %35 to i64
  %37 = call i32 @memcmp(ptr noundef %29, ptr noundef %32, i64 noundef %36) #10
  %38 = icmp eq i32 %37, 0
  br i1 %38, label %39, label %40

39:                                               ; preds = %26, %21
  store i1 true, ptr %3, align 1
  br label %41

40:                                               ; preds = %26, %13, %2
  store i1 false, ptr %3, align 1
  br label %41

41:                                               ; preds = %40, %39
  %42 = load i1, ptr %3, align 1
  ret i1 %42
}

; Function Attrs: null_pointer_is_valid sspstrong uwtable
define hidden zeroext i1 @rdp_isServerAddressTarget(ptr noundef %0) #0 {
  %2 = alloca i1, align 1
  %3 = alloca ptr, align 8
  %4 = alloca ptr, align 8
  %5 = alloca ptr, align 8
  %6 = alloca ptr, align 8
  %7 = alloca i32, align 4
  %8 = alloca ptr, align 8
  store ptr %0, ptr %3, align 8
  call void @llvm.lifetime.start.p0(i64 8, ptr %4) #9
  call void @llvm.lifetime.start.p0(i64 8, ptr %5) #9
  call void @llvm.lifetime.start.p0(i64 8, ptr %6) #9
  %9 = load ptr, ptr %3, align 8
  %10 = call ptr @find_conversation_pinfo(ptr noundef %9, i32 noundef 0)
  store ptr %10, ptr %4, align 8
  %11 = load ptr, ptr %4, align 8
  %12 = icmp ne ptr %11, null
  br i1 %12, label %14, label %13

13:                                               ; preds = %1
  store i1 false, ptr %2, align 1
  store i32 1, ptr %7, align 4
  br label %63

14:                                               ; preds = %1
  %15 = load ptr, ptr %4, align 8
  %16 = load i32, ptr @proto_rdp, align 4
  %17 = call ptr @conversation_get_proto_data(ptr noundef %15, i32 noundef %16)
  store ptr %17, ptr %5, align 8
  %18 = load ptr, ptr %5, align 8
  %19 = icmp ne ptr %18, null
  br i1 %19, label %20, label %39

20:                                               ; preds = %14
  call void @llvm.lifetime.start.p0(i64 8, ptr %8) #9
  %21 = load ptr, ptr %5, align 8
  %22 = getelementptr inbounds nuw %struct._rdp_conv_info_t, ptr %21, i32 0, i32 5
  store ptr %22, ptr %8, align 8
  %23 = load ptr, ptr %8, align 8
  %24 = getelementptr inbounds nuw %struct._rdp_server_address, ptr %23, i32 0, i32 0
  %25 = load ptr, ptr %3, align 8
  %26 = getelementptr inbounds nuw %struct._packet_info, ptr %25, i32 0, i32 17
  %27 = call zeroext i1 @addresses_equal(ptr noundef %24, ptr noundef %26)
  br i1 %27, label %28, label %37

28:                                               ; preds = %20
  %29 = load ptr, ptr %3, align 8
  %30 = getelementptr inbounds nuw %struct._packet_info, ptr %29, i32 0, i32 25
  %31 = load i32, ptr %30, align 8
  %32 = load ptr, ptr %8, align 8
  %33 = getelementptr inbounds nuw %struct._rdp_server_address, ptr %32, i32 0, i32 1
  %34 = load i16, ptr %33, align 8
  %35 = zext i16 %34 to i32
  %36 = icmp eq i32 %31, %35
  br label %37

37:                                               ; preds = %28, %20
  %38 = phi i1 [ false, %20 ], [ %36, %28 ]
  store i1 %38, ptr %2, align 1
  store i32 1, ptr %7, align 4
  call void @llvm.lifetime.end.p0(i64 8, ptr %8) #9
  br label %63

39:                                               ; preds = %14
  %40 = load ptr, ptr %4, align 8
  %41 = load i32, ptr @proto_rdpudp, align 4
  %42 = call ptr @conversation_get_proto_data(ptr noundef %40, i32 noundef %41)
  store ptr %42, ptr %6, align 8
  %43 = load ptr, ptr %6, align 8
  %44 = icmp ne ptr %43, null
  br i1 %44, label %46, label %45

45:                                               ; preds = %39
  store i1 false, ptr %2, align 1
  store i32 1, ptr %7, align 4
  br label %63

46:                                               ; preds = %39
  %47 = load ptr, ptr %6, align 8
  %48 = getelementptr inbounds nuw %struct._rdpudp_conv_info_t, ptr %47, i32 0, i32 2
  %49 = load ptr, ptr %3, align 8
  %50 = getelementptr inbounds nuw %struct._packet_info, ptr %49, i32 0, i32 17
  %51 = call zeroext i1 @addresses_equal(ptr noundef %48, ptr noundef %50)
  br i1 %51, label %52, label %61

52:                                               ; preds = %46
  %53 = load ptr, ptr %6, align 8
  %54 = getelementptr inbounds nuw %struct._rdpudp_conv_info_t, ptr %53, i32 0, i32 3
  %55 = load i16, ptr %54, align 8
  %56 = zext i16 %55 to i32
  %57 = load ptr, ptr %3, align 8
  %58 = getelementptr inbounds nuw %struct._packet_info, ptr %57, i32 0, i32 25
  %59 = load i32, ptr %58, align 8
  %60 = icmp eq i32 %56, %59
  br label %61

61:                                               ; preds = %52, %46
  %62 = phi i1 [ false, %46 ], [ %60, %52 ]
  store i1 %62, ptr %2, align 1
  store i32 1, ptr %7, align 4
  br label %63

63:                                               ; preds = %61, %45, %37, %13
  call void @llvm.lifetime.end.p0(i64 8, ptr %6) #9
  call void @llvm.lifetime.end.p0(i64 8, ptr %5) #9
  call void @llvm.lifetime.end.p0(i64 8, ptr %4) #9
  %64 = load i1, ptr %2, align 1
  ret i1 %64
}