; Function Attrs: null_pointer_is_valid sspstrong uwtable
define hidden zeroext i1 @rdp_isServerAddressTarget(ptr noundef %0) local_unnamed_addr #0 {
  %2 = tail call ptr @find_conversation_pinfo(ptr noundef %0, i32 noundef 0)
  %.not = icmp eq ptr %2, null
  br i1 %.not, label %addresses_equal.exit, label %3

3:                                                ; preds = %1
  %4 = load i32, ptr @proto_rdp, align 4
  %5 = tail call ptr @conversation_get_proto_data(ptr noundef nonnull %2, i32 noundef %4)
  %.not19 = icmp eq ptr %5, null
  br i1 %.not19, label %34, label %6

6:                                                ; preds = %3
  %7 = getelementptr inbounds nuw i8, ptr %5, i64 24
  %8 = getelementptr inbounds nuw i8, ptr %0, i64 232
  %9 = load i32, ptr %7, align 8
  %10 = load i32, ptr %8, align 8
  %11 = icmp eq i32 %9, %10
  br i1 %11, label %12, label %addresses_equal.exit

12:                                               ; preds = %6
  %13 = getelementptr inbounds nuw i8, ptr %5, i64 28
  %14 = load i32, ptr %13, align 4
  %15 = getelementptr inbounds nuw i8, ptr %0, i64 236
  %16 = load i32, ptr %15, align 4
  %17 = icmp eq i32 %14, %16
  br i1 %17, label %18, label %addresses_equal.exit

18:                                               ; preds = %12
  %19 = icmp eq i32 %14, 0
  br i1 %19, label %27, label %20

20:                                               ; preds = %18
  %21 = getelementptr inbounds nuw i8, ptr %5, i64 32
  %22 = load ptr, ptr %21, align 8
  %23 = getelementptr inbounds nuw i8, ptr %0, i64 240
  %24 = load ptr, ptr %23, align 8
  %25 = sext i32 %14 to i64
  %bcmp.i = tail call i32 @bcmp(ptr %22, ptr %24, i64 %25)
  %26 = icmp eq i32 %bcmp.i, 0
  br i1 %26, label %27, label %addresses_equal.exit

27:                                               ; preds = %20, %18
  %28 = getelementptr inbounds nuw i8, ptr %0, i64 288
  %29 = load i32, ptr %28, align 8
  %30 = getelementptr inbounds nuw i8, ptr %5, i64 48
  %31 = load i16, ptr %30, align 8
  %32 = zext i16 %31 to i32
  %33 = icmp eq i32 %29, %32
  br label %addresses_equal.exit

34:                                               ; preds = %3
  %35 = load i32, ptr @proto_rdpudp, align 4
  %36 = tail call ptr @conversation_get_proto_data(ptr noundef nonnull %2, i32 noundef %35)
  %.not20 = icmp eq ptr %36, null
  br i1 %.not20, label %addresses_equal.exit, label %37

37:                                               ; preds = %34
  %38 = getelementptr inbounds nuw i8, ptr %36, i64 8
  %39 = getelementptr inbounds nuw i8, ptr %0, i64 232
  %40 = load i32, ptr %38, align 8
  %41 = load i32, ptr %39, align 8
  %42 = icmp eq i32 %40, %41
  br i1 %42, label %43, label %addresses_equal.exit

43:                                               ; preds = %37
  %44 = getelementptr inbounds nuw i8, ptr %36, i64 12
  %45 = load i32, ptr %44, align 4
  %46 = getelementptr inbounds nuw i8, ptr %0, i64 236
  %47 = load i32, ptr %46, align 4
  %48 = icmp eq i32 %45, %47
  br i1 %48, label %49, label %addresses_equal.exit

49:                                               ; preds = %43
  %50 = icmp eq i32 %45, 0
  br i1 %50, label %58, label %51

51:                                               ; preds = %49
  %52 = getelementptr inbounds nuw i8, ptr %36, i64 16
  %53 = load ptr, ptr %52, align 8
  %54 = getelementptr inbounds nuw i8, ptr %0, i64 240
  %55 = load ptr, ptr %54, align 8
  %56 = sext i32 %45 to i64
  %bcmp.i22 = tail call i32 @bcmp(ptr %53, ptr %55, i64 %56)
  %57 = icmp eq i32 %bcmp.i22, 0
  br i1 %57, label %58, label %addresses_equal.exit

58:                                               ; preds = %51, %49
  %59 = getelementptr inbounds nuw i8, ptr %36, i64 32
  %60 = load i16, ptr %59, align 8
  %61 = zext i16 %60 to i32
  %62 = getelementptr inbounds nuw i8, ptr %0, i64 288
  %63 = load i32, ptr %62, align 8
  %64 = icmp eq i32 %63, %61
  br label %addresses_equal.exit

addresses_equal.exit:                             ; preds = %51, %43, %37, %20, %12, %6, %58, %34, %27, %1
  %.0 = phi i1 [ false, %1 ], [ %33, %27 ], [ false, %34 ], [ %64, %58 ], [ false, %6 ], [ false, %12 ], [ false, %20 ], [ false, %37 ], [ false, %43 ], [ false, %51 ]
  ret i1 %.0
}